; Function Attrs: nounwind uwtable
define internal noundef i32 @H5P__ocpy_merge_comm_dt_list_close(ptr readnone captures(none) %0, i64 %1, ptr noundef readonly captures(none) %2) #0 {
  %4 = load i8, ptr @H5P_init_g, align 1, !tbaa !3, !range !7, !noundef !8
  %5 = trunc nuw i8 %4 to i1
  %6 = load i8, ptr @H5_libterm_g, align 1, !range !7
  %7 = trunc nuw i8 %6 to i1
  %8 = xor i1 %7, true
  %9 = select i1 %5, i1 true, i1 %8
  br i1 %9, label %10, label %H5P__free_merge_comm_dtype_list.exit, !prof !9

10:                                               ; preds = %3
  %11 = load ptr, ptr %2, align 8, !tbaa !18
  %.not = icmp eq ptr %11, null
  br i1 %.not, label %H5P__free_merge_comm_dtype_list.exit, label %.preheader.i, !prof !38

.preheader.i:                                     ; preds = %10, %.preheader.i
  %.0.i = phi ptr [ %13, %.preheader.i ], [ %11, %10 ]
  %12 = getelementptr inbounds nuw i8, ptr %.0.i, i64 8
  %13 = load ptr, ptr %12, align 8, !tbaa !26
  %14 = load ptr, ptr %.0.i, align 8, !tbaa !23
  %15 = tail call ptr @H5MM_xfree(ptr noundef %14) #8
  %16 = tail call ptr @H5FL_reg_free(ptr noundef nonnull @H5_H5O_copy_dtype_merge_list_t_reg_free_list, ptr noundef nonnull %.0.i) #8
  %.old1.not.i = icmp eq ptr %13, null
  br i1 %.old1.not.i, label %H5P__free_merge_comm_dtype_list.exit, label %.preheader.i

H5P__free_merge_comm_dtype_list.exit:             ; preds = %.preheader.i, %10, %3
  ret i32 0
}